target datalayout = "e-m:e-p270:32:32-p271:32:32-p272:64:64-i64:64-i128:128-f80:128-n8:16:32:64-S128"
target triple = "x86_64-unknown-linux-gnu"

%struct.cliConnInfo = type { ptr, i32, i32, ptr, ptr }

@.str.1 = private unnamed_addr constant [9 x i8] c"redis://\00", align 1
@.str.2 = private unnamed_addr constant [10 x i8] c"rediss://\00", align 1
@stderr = external global ptr, align 8
@.str.3 = private unnamed_addr constant [62 x i8] c"rediss:// is only supported when %s is compiled with OpenSSL\0A\00", align 1
@.str.4 = private unnamed_addr constant [20 x i8] c"Invalid URI scheme\0A\00", align 1

; Function Attrs: nounwind uwtable
define dso_local void @parseRedisUri(ptr noundef %uri, ptr noundef %tool_name, ptr noundef %connInfo, ptr noundef %tls_flag) #0 {
entry:
  %uri.addr = alloca ptr, align 8
  %tool_name.addr = alloca ptr, align 8
  %connInfo.addr = alloca ptr, align 8
  %tls_flag.addr = alloca ptr, align 8
  %scheme = alloca ptr, align 8
  %tlsscheme = alloca ptr, align 8
  %curr = alloca ptr, align 8
  %end = alloca ptr, align 8
  %userinfo = alloca ptr, align 8
  %username = alloca ptr, align 8
  %port = alloca ptr, align 8
  %host = alloca ptr, align 8
  %path = alloca ptr, align 8
  store ptr %uri, ptr %uri.addr, align 8
  store ptr %tool_name, ptr %tool_name.addr, align 8
  store ptr %connInfo, ptr %connInfo.addr, align 8
  store ptr %tls_flag, ptr %tls_flag.addr, align 8
  store ptr @.str.1, ptr %scheme, align 8
  store ptr @.str.2, ptr %tlsscheme, align 8
  %0 = load ptr, ptr %uri.addr, align 8
  store ptr %0, ptr %curr, align 8
  %1 = load ptr, ptr %uri.addr, align 8
  %2 = load ptr, ptr %uri.addr, align 8
  %call = call i64 @strlen(ptr noundef %2) #9
  %add.ptr = getelementptr inbounds i8, ptr %1, i64 %call
  store ptr %add.ptr, ptr %end, align 8
  %3 = load ptr, ptr %tlsscheme, align 8
  %4 = load ptr, ptr %curr, align 8
  %5 = load ptr, ptr %tlsscheme, align 8
  %call1 = call i64 @strlen(ptr noundef %5) #9
  %call2 = call i32 @strncasecmp(ptr noundef %3, ptr noundef %4, i64 noundef %call1) #9
  %tobool = icmp ne i32 %call2, 0
  br i1 %tobool, label %if.else, label %if.then

if.then:                                          ; preds = %entry
  %6 = load ptr, ptr @stderr, align 8
  %7 = load ptr, ptr %tool_name.addr, align 8
  %call3 = call i32 (ptr, ptr, ...) @fprintf(ptr noundef %6, ptr noundef @.str.3, ptr noundef %7) #7
  call void @exit(i32 noundef 1) #8
  unreachable

if.else:                                          ; preds = %entry
  %8 = load ptr, ptr %scheme, align 8
  %9 = load ptr, ptr %curr, align 8
  %10 = load ptr, ptr %scheme, align 8
  %call4 = call i64 @strlen(ptr noundef %10) #9
  %call5 = call i32 @strncasecmp(ptr noundef %8, ptr noundef %9, i64 noundef %call4) #9
  %tobool6 = icmp ne i32 %call5, 0
  br i1 %tobool6, label %if.else10, label %if.then7

if.then7:                                         ; preds = %if.else
  %11 = load ptr, ptr %scheme, align 8
  %call8 = call i64 @strlen(ptr noundef %11) #9
  %12 = load ptr, ptr %curr, align 8
  %add.ptr9 = getelementptr inbounds i8, ptr %12, i64 %call8
  store ptr %add.ptr9, ptr %curr, align 8
  br label %if.end

if.else10:                                        ; preds = %if.else
  %13 = load ptr, ptr @stderr, align 8
  %call11 = call i32 (ptr, ptr, ...) @fprintf(ptr noundef %13, ptr noundef @.str.4) #7
  call void @exit(i32 noundef 1) #8
  unreachable

if.end:                                           ; preds = %if.then7
  br label %if.end12

if.end12:                                         ; preds = %if.end
  %14 = load ptr, ptr %curr, align 8
  %15 = load ptr, ptr %end, align 8
  %cmp = icmp eq ptr %14, %15
  br i1 %cmp, label %if.then13, label %if.end14

if.then13:                                        ; preds = %if.end12
  br label %return

if.end14:                                         ; preds = %if.end12
  %16 = load ptr, ptr %curr, align 8
  %call15 = call ptr @strchr(ptr noundef %16, i32 noundef 64) #9
  store ptr %call15, ptr %userinfo, align 8
  %tobool16 = icmp ne ptr %call15, null
  br i1 %tobool16, label %if.then17, label %if.end30

if.then17:                                        ; preds = %if.end14
  %17 = load ptr, ptr %curr, align 8
  %call18 = call ptr @strchr(ptr noundef %17, i32 noundef 58) #9
  store ptr %call18, ptr %username, align 8
  %tobool19 = icmp ne ptr %call18, null
  br i1 %tobool19, label %land.lhs.true, label %if.end24

land.lhs.true:                                    ; preds = %if.then17
  %18 = load ptr, ptr %username, align 8
  %19 = load ptr, ptr %userinfo, align 8
  %cmp20 = icmp ult ptr %18, %19
  br i1 %cmp20, label %if.then21, label %if.end24

if.then21:                                        ; preds = %land.lhs.true
  %20 = load ptr, ptr %curr, align 8
  %21 = load ptr, ptr %username, align 8
  %22 = load ptr, ptr %curr, align 8
  %sub.ptr.lhs.cast = ptrtoint ptr %21 to i64
  %sub.ptr.rhs.cast = ptrtoint ptr %22 to i64
  %sub.ptr.sub = sub i64 %sub.ptr.lhs.cast, %sub.ptr.rhs.cast
  %call22 = call ptr @percentDecode(ptr noundef %20, i64 noundef %sub.ptr.sub)
  %23 = load ptr, ptr %connInfo.addr, align 8
  %user = getelementptr inbounds %struct.cliConnInfo, ptr %23, i32 0, i32 4
  store ptr %call22, ptr %user, align 8
  %24 = load ptr, ptr %username, align 8
  %add.ptr23 = getelementptr inbounds i8, ptr %24, i64 1
  store ptr %add.ptr23, ptr %curr, align 8
  br label %if.end24

if.end24:                                         ; preds = %if.then21, %land.lhs.true, %if.then17
  %25 = load ptr, ptr %curr, align 8
  %26 = load ptr, ptr %userinfo, align 8
  %27 = load ptr, ptr %curr, align 8
  %sub.ptr.lhs.cast25 = ptrtoint ptr %26 to i64
  %sub.ptr.rhs.cast26 = ptrtoint ptr %27 to i64
  %sub.ptr.sub27 = sub i64 %sub.ptr.lhs.cast25, %sub.ptr.rhs.cast26
  %call28 = call ptr @percentDecode(ptr noundef %25, i64 noundef %sub.ptr.sub27)
  %28 = load ptr, ptr %connInfo.addr, align 8
  %auth = getelementptr inbounds %struct.cliConnInfo, ptr %28, i32 0, i32 3
  store ptr %call28, ptr %auth, align 8
  %29 = load ptr, ptr %userinfo, align 8
  %add.ptr29 = getelementptr inbounds i8, ptr %29, i64 1
  store ptr %add.ptr29, ptr %curr, align 8
  br label %if.end30

if.end30:                                         ; preds = %if.end24, %if.end14
  %30 = load ptr, ptr %curr, align 8
  %31 = load ptr, ptr %end, align 8
  %cmp31 = icmp eq ptr %30, %31
  br i1 %cmp31, label %if.then32, label %if.end33

if.then32:                                        ; preds = %if.end30
  br label %return

if.end33:                                         ; preds = %if.end30
  %32 = load ptr, ptr %curr, align 8
  %call34 = call ptr @strchr(ptr noundef %32, i32 noundef 47) #9
  store ptr %call34, ptr %path, align 8
  %33 = load ptr, ptr %curr, align 8
  %34 = load i8, ptr %33, align 1
  %conv = sext i8 %34 to i32
  %cmp35 = icmp ne i32 %conv, 47
  br i1 %cmp35, label %if.then37, label %if.end73

if.then37:                                        ; preds = %if.end33
  %35 = load ptr, ptr %path, align 8
  %tobool38 = icmp ne ptr %35, null
  br i1 %tobool38, label %cond.true, label %cond.false

cond.true:                                        ; preds = %if.then37
  %36 = load ptr, ptr %path, align 8
  %add.ptr39 = getelementptr inbounds i8, ptr %36, i64 -1
  br label %cond.end

cond.false:                                       ; preds = %if.then37
  %37 = load ptr, ptr %end, align 8
  br label %cond.end

cond.end:                                         ; preds = %cond.false, %cond.true
  %cond = phi ptr [ %add.ptr39, %cond.true ], [ %37, %cond.false ]
  store ptr %cond, ptr %host, align 8
  %38 = load ptr, ptr %curr, align 8
  %39 = load i8, ptr %38, align 1
  %conv40 = sext i8 %39 to i32
  %cmp41 = icmp eq i32 %conv40, 91
  br i1 %cmp41, label %if.then43, label %if.else58

if.then43:                                        ; preds = %cond.end
  %40 = load ptr, ptr %curr, align 8
  %add.ptr44 = getelementptr inbounds i8, ptr %40, i64 1
  store ptr %add.ptr44, ptr %curr, align 8
  %41 = load ptr, ptr %curr, align 8
  %call45 = call ptr @strchr(ptr noundef %41, i32 noundef 93) #9
  store ptr %call45, ptr %port, align 8
  %tobool46 = icmp ne ptr %call45, null
  br i1 %tobool46, label %if.then47, label %if.end57

if.then47:                                        ; preds = %if.then43
  %42 = load ptr, ptr %port, align 8
  %add.ptr48 = getelementptr inbounds i8, ptr %42, i64 1
  %43 = load i8, ptr %add.ptr48, align 1
  %conv49 = sext i8 %43 to i32
  %cmp50 = icmp eq i32 %conv49, 58
  br i1 %cmp50, label %if.then52, label %if.end55

if.then52:                                        ; preds = %if.then47
  %44 = load ptr, ptr %port, align 8
  %add.ptr53 = getelementptr inbounds i8, ptr %44, i64 2
  %call54 = call i32 @atoi(ptr noundef %add.ptr53) #9
  %45 = load ptr, ptr %connInfo.addr, align 8
  %hostport = getelementptr inbounds %struct.cliConnInfo, ptr %45, i32 0, i32 1
  store i32 %call54, ptr %hostport, align 8
  br label %if.end55

if.end55:                                         ; preds = %if.then52, %if.then47
  %46 = load ptr, ptr %port, align 8
  %add.ptr56 = getelementptr inbounds i8, ptr %46, i64 -1
  store ptr %add.ptr56, ptr %host, align 8
  br label %if.end57

if.end57:                                         ; preds = %if.end55, %if.then43
  br label %if.end67

if.else58:                                        ; preds = %cond.end
  %47 = load ptr, ptr %curr, align 8
  %call59 = call ptr @strchr(ptr noundef %47, i32 noundef 58) #9
  store ptr %call59, ptr %port, align 8
  %tobool60 = icmp ne ptr %call59, null
  br i1 %tobool60, label %if.then61, label %if.end66

if.then61:                                        ; preds = %if.else58
  %48 = load ptr, ptr %port, align 8
  %add.ptr62 = getelementptr inbounds i8, ptr %48, i64 1
  %call63 = call i32 @atoi(ptr noundef %add.ptr62) #9
  %49 = load ptr, ptr %connInfo.addr, align 8
  %hostport64 = getelementptr inbounds %struct.cliConnInfo, ptr %49, i32 0, i32 1
  store i32 %call63, ptr %hostport64, align 8
  %50 = load ptr, ptr %port, align 8
  %add.ptr65 = getelementptr inbounds i8, ptr %50, i64 -1
  store ptr %add.ptr65, ptr %host, align 8
  br label %if.end66

if.end66:                                         ; preds = %if.then61, %if.else58
  br label %if.end67

if.end67:                                         ; preds = %if.end66, %if.end57
  %51 = load ptr, ptr %connInfo.addr, align 8
  %hostip = getelementptr inbounds %struct.cliConnInfo, ptr %51, i32 0, i32 0
  %52 = load ptr, ptr %hostip, align 8
  call void @hi_sdsfree(ptr noundef %52)
  %53 = load ptr, ptr %curr, align 8
  %54 = load ptr, ptr %host, align 8
  %55 = load ptr, ptr %curr, align 8
  %sub.ptr.lhs.cast68 = ptrtoint ptr %54 to i64
  %sub.ptr.rhs.cast69 = ptrtoint ptr %55 to i64
  %sub.ptr.sub70 = sub i64 %sub.ptr.lhs.cast68, %sub.ptr.rhs.cast69
  %add = add nsw i64 %sub.ptr.sub70, 1
  %call71 = call ptr @hi_sdsnewlen(ptr noundef %53, i64 noundef %add)
  %56 = load ptr, ptr %connInfo.addr, align 8
  %hostip72 = getelementptr inbounds %struct.cliConnInfo, ptr %56, i32 0, i32 0
  store ptr %call71, ptr %hostip72, align 8
  br label %if.end73

if.end73:                                         ; preds = %if.end67, %if.end33
  %57 = load ptr, ptr %path, align 8
  %tobool74 = icmp ne ptr %57, null
  br i1 %tobool74, label %cond.true75, label %cond.false77

cond.true75:                                      ; preds = %if.end73
  %58 = load ptr, ptr %path, align 8
  %add.ptr76 = getelementptr inbounds i8, ptr %58, i64 1
  br label %cond.end78

cond.false77:                                     ; preds = %if.end73
  %59 = load ptr, ptr %end, align 8
  br label %cond.end78

cond.end78:                                       ; preds = %cond.false77, %cond.true75
  %cond79 = phi ptr [ %add.ptr76, %cond.true75 ], [ %59, %cond.false77 ]
  store ptr %cond79, ptr %curr, align 8
  %60 = load ptr, ptr %curr, align 8
  %61 = load ptr, ptr %end, align 8
  %cmp80 = icmp eq ptr %60, %61
  br i1 %cmp80, label %if.then82, label %if.end83

if.then82:                                        ; preds = %cond.end78
  br label %return

if.end83:                                         ; preds = %cond.end78
  %62 = load ptr, ptr %curr, align 8
  %call84 = call i32 @atoi(ptr noundef %62) #9
  %63 = load ptr, ptr %connInfo.addr, align 8
  %input_dbnum = getelementptr inbounds %struct.cliConnInfo, ptr %63, i32 0, i32 2
  store i32 %call84, ptr %input_dbnum, align 4
  br label %return

return:                                           ; preds = %if.end83, %if.then82, %if.then32, %if.then13
  ret void
}