; Function Attrs: nounwind uwtable
define dso_local void @parseRedisUri(ptr noundef %uri, ptr noundef %tool_name, ptr nocapture noundef %connInfo, ptr nocapture noundef readnone %tls_flag) local_unnamed_addr #1 {
entry:
  %call = tail call i64 @strlen(ptr noundef nonnull dereferenceable(1) %uri) #15
  %add.ptr = getelementptr inbounds i8, ptr %uri, i64 %call
  %call2 = tail call i32 @strncasecmp(ptr noundef nonnull @.str.2, ptr noundef %uri, i64 noundef 9) #15
  %tobool.not = icmp eq i32 %call2, 0
  br i1 %tobool.not, label %if.then, label %if.else

if.then:                                          ; preds = %entry
  %0 = load ptr, ptr @stderr, align 8
  %call3 = tail call i32 (ptr, ptr, ...) @fprintf(ptr noundef %0, ptr noundef nonnull @.str.3, ptr noundef %tool_name) #16
  tail call void @exit(i32 noundef 1) #14
  unreachable

if.else:                                          ; preds = %entry
  %call5 = tail call i32 @strncasecmp(ptr noundef nonnull @.str.1, ptr noundef %uri, i64 noundef 8) #15
  %tobool6.not = icmp eq i32 %call5, 0
  br i1 %tobool6.not, label %if.then7, label %if.else10

if.then7:                                         ; preds = %if.else
  %add.ptr9 = getelementptr inbounds i8, ptr %uri, i64 8
  %cmp = icmp eq i64 %call, 8
  br i1 %cmp, label %return, label %if.end14

if.else10:                                        ; preds = %if.else
  %1 = load ptr, ptr @stderr, align 8
  %2 = tail call i64 @fwrite(ptr nonnull @.str.4, i64 19, i64 1, ptr %1) #13
  tail call void @exit(i32 noundef 1) #14
  unreachable

if.end14:                                         ; preds = %if.then7
  %call15 = tail call ptr @strchr(ptr noundef nonnull dereferenceable(1) %add.ptr9, i32 noundef 64) #15
  %tobool16.not = icmp eq ptr %call15, null
  br i1 %tobool16.not, label %if.end30, label %if.then17

if.then17:                                        ; preds = %if.end14
  %call18 = tail call ptr @strchr(ptr noundef nonnull dereferenceable(1) %add.ptr9, i32 noundef 58) #15
  %tobool19.not = icmp ne ptr %call18, null
  %cmp20 = icmp ult ptr %call18, %call15
  %or.cond = and i1 %tobool19.not, %cmp20
  br i1 %or.cond, label %if.then21, label %if.end24

if.then21:                                        ; preds = %if.then17
  %sub.ptr.lhs.cast = ptrtoint ptr %call18 to i64
  %sub.ptr.rhs.cast = ptrtoint ptr %add.ptr9 to i64
  %sub.ptr.sub = sub i64 %sub.ptr.lhs.cast, %sub.ptr.rhs.cast
  %call22 = tail call fastcc ptr @percentDecode(ptr noundef nonnull %add.ptr9, i64 noundef %sub.ptr.sub)
  %user = getelementptr inbounds i8, ptr %connInfo, i64 24
  store ptr %call22, ptr %user, align 8
  %add.ptr23 = getelementptr inbounds i8, ptr %call18, i64 1
  br label %if.end24

if.end24:                                         ; preds = %if.then21, %if.then17
  %curr.0 = phi ptr [ %add.ptr23, %if.then21 ], [ %add.ptr9, %if.then17 ]
  %sub.ptr.lhs.cast25 = ptrtoint ptr %call15 to i64
  %sub.ptr.rhs.cast26 = ptrtoint ptr %curr.0 to i64
  %sub.ptr.sub27 = sub i64 %sub.ptr.lhs.cast25, %sub.ptr.rhs.cast26
  %call28 = tail call fastcc ptr @percentDecode(ptr noundef nonnull %curr.0, i64 noundef %sub.ptr.sub27)
  %auth = getelementptr inbounds i8, ptr %connInfo, i64 16
  store ptr %call28, ptr %auth, align 8
  %add.ptr29 = getelementptr inbounds i8, ptr %call15, i64 1
  br label %if.end30

if.end30:                                         ; preds = %if.end24, %if.end14
  %curr.1 = phi ptr [ %add.ptr29, %if.end24 ], [ %add.ptr9, %if.end14 ]
  %cmp31 = icmp eq ptr %curr.1, %add.ptr
  br i1 %cmp31, label %return, label %if.end33

if.end33:                                         ; preds = %if.end30
  %call34 = tail call ptr @strchr(ptr noundef nonnull dereferenceable(1) %curr.1, i32 noundef 47) #15
  %3 = load i8, ptr %curr.1, align 1
  %cmp35.not = icmp eq i8 %3, 47
  br i1 %cmp35.not, label %if.end73, label %if.then37

if.then37:                                        ; preds = %if.end33
  %tobool38.not = icmp eq ptr %call34, null
  %add.ptr39 = getelementptr inbounds i8, ptr %call34, i64 -1
  %cond = select i1 %tobool38.not, ptr %add.ptr, ptr %add.ptr39
  %cmp41 = icmp eq i8 %3, 91
  br i1 %cmp41, label %if.then43, label %if.else58

if.then43:                                        ; preds = %if.then37
  %add.ptr44 = getelementptr inbounds i8, ptr %curr.1, i64 1
  %call45 = tail call ptr @strchr(ptr noundef nonnull dereferenceable(1) %add.ptr44, i32 noundef 93) #15
  %tobool46.not = icmp eq ptr %call45, null
  br i1 %tobool46.not, label %if.end67, label %if.then47

if.then47:                                        ; preds = %if.then43
  %add.ptr48 = getelementptr inbounds i8, ptr %call45, i64 1
  %4 = load i8, ptr %add.ptr48, align 1
  %cmp50 = icmp eq i8 %4, 58
  br i1 %cmp50, label %if.then52, label %if.end55

if.then52:                                        ; preds = %if.then47
  %add.ptr53 = getelementptr inbounds i8, ptr %call45, i64 2
  %call54 = tail call i32 @atoi(ptr nocapture noundef nonnull %add.ptr53) #15
  %hostport = getelementptr inbounds i8, ptr %connInfo, i64 8
  store i32 %call54, ptr %hostport, align 8
  br label %if.end55

if.end55:                                         ; preds = %if.then52, %if.then47
  %add.ptr56 = getelementptr inbounds i8, ptr %call45, i64 -1
  br label %if.end67

if.else58:                                        ; preds = %if.then37
  %call59 = tail call ptr @strchr(ptr noundef nonnull dereferenceable(1) %curr.1, i32 noundef 58) #15
  %tobool60.not = icmp eq ptr %call59, null
  br i1 %tobool60.not, label %if.end67, label %if.then61

if.then61:                                        ; preds = %if.else58
  %add.ptr62 = getelementptr inbounds i8, ptr %call59, i64 1
  %call63 = tail call i32 @atoi(ptr nocapture noundef nonnull %add.ptr62) #15
  %hostport64 = getelementptr inbounds i8, ptr %connInfo, i64 8
  store i32 %call63, ptr %hostport64, align 8
  %add.ptr65 = getelementptr inbounds i8, ptr %call59, i64 -1
  br label %if.end67

if.end67:                                         ; preds = %if.else58, %if.then61, %if.then43, %if.end55
  %host.0 = phi ptr [ %add.ptr56, %if.end55 ], [ %cond, %if.then43 ], [ %add.ptr65, %if.then61 ], [ %cond, %if.else58 ]
  %curr.2 = phi ptr [ %add.ptr44, %if.end55 ], [ %add.ptr44, %if.then43 ], [ %curr.1, %if.then61 ], [ %curr.1, %if.else58 ]
  %5 = load ptr, ptr %connInfo, align 8
  tail call void @hi_sdsfree(ptr noundef %5) #11
  %sub.ptr.lhs.cast68 = ptrtoint ptr %host.0 to i64
  %sub.ptr.rhs.cast69 = ptrtoint ptr %curr.2 to i64
  %sub.ptr.sub70 = add i64 %sub.ptr.lhs.cast68, 1
  %add = sub i64 %sub.ptr.sub70, %sub.ptr.rhs.cast69
  %call71 = tail call ptr @hi_sdsnewlen(ptr noundef nonnull %curr.2, i64 noundef %add) #11
  store ptr %call71, ptr %connInfo, align 8
  br label %if.end73

if.end73:                                         ; preds = %if.end67, %if.end33
  %tobool74.not = icmp eq ptr %call34, null
  %add.ptr76 = getelementptr inbounds i8, ptr %call34, i64 1
  %cmp8047 = icmp eq ptr %add.ptr76, %add.ptr
  %cmp80 = select i1 %tobool74.not, i1 true, i1 %cmp8047
  br i1 %cmp80, label %return, label %if.end83

if.end83:                                         ; preds = %if.end73
  %call84 = tail call i32 @atoi(ptr nocapture noundef nonnull %add.ptr76) #15
  %input_dbnum = getelementptr inbounds i8, ptr %connInfo, i64 12
  store i32 %call84, ptr %input_dbnum, align 4
  br label %return

return:                                           ; preds = %if.end73, %if.end30, %if.then7, %if.end83
  ret void
}